target datalayout = "e-m:e-p270:32:32-p271:32:32-p272:64:64-i64:64-i128:128-f80:128-n8:16:32:64-S128"
target triple = "x86_64-pc-linux-gnu"

%struct.ieee802154_hints_t = type { i16, i16, i16, ptr, ptr }

@proto_ieee802154 = internal global i32 0, align 4
@.str.1142 = private unnamed_addr constant [28 x i8] c"IEEE 802.15.4 PAN 0x%04x as\00", align 1
@.str.1143 = private unnamed_addr constant [26 x i8] c"IEEE 802.15.4 PAN Unknown\00", align 1

; Function Attrs: null_pointer_is_valid sspstrong uwtable
define internal void @ieee802154_da_prompt(ptr noundef %0, ptr noundef %1) #0 {
  %3 = alloca ptr, align 8
  %4 = alloca ptr, align 8
  %5 = alloca ptr, align 8
  store ptr %0, ptr %3, align 8
  store ptr %1, ptr %4, align 8
  call void @llvm.lifetime.start.p0(i64 8, ptr %5) #17
  %6 = call ptr @wmem_file_scope()
  %7 = load ptr, ptr %3, align 8
  %8 = load i32, ptr @proto_ieee802154, align 4
  %9 = call ptr @p_get_proto_data(ptr noundef %6, ptr noundef %7, i32 noundef %8, i32 noundef 0)
  store ptr %9, ptr %5, align 8
  %10 = load ptr, ptr %5, align 8
  %11 = icmp ne ptr %10, null
  br i1 %11, label %12, label %21

12:                                               ; preds = %2
  %13 = load ptr, ptr %4, align 8
  %14 = load ptr, ptr %4, align 8
  %15 = call i64 @llvm.objectsize.i64.p0(ptr %14, i1 false, i1 true, i1 true)
  %16 = load ptr, ptr %5, align 8
  %17 = getelementptr inbounds nuw %struct.ieee802154_hints_t, ptr %16, i32 0, i32 0
  %18 = load i16, ptr %17, align 8
  %19 = zext i16 %18 to i32
  %20 = call i32 (ptr, i64, i32, i64, ptr, ...) @__snprintf_chk(ptr noundef %13, i64 noundef 200, i32 noundef 2, i64 noundef %15, ptr noundef @.str.1142, i32 noundef %19)
  br label %26

21:                                               ; preds = %2
  %22 = load ptr, ptr %4, align 8
  %23 = load ptr, ptr %4, align 8
  %24 = call i64 @llvm.objectsize.i64.p0(ptr %23, i1 false, i1 true, i1 true)
  %25 = call i32 (ptr, i64, i32, i64, ptr, ...) @__snprintf_chk(ptr noundef %22, i64 noundef 200, i32 noundef 2, i64 noundef %24, ptr noundef @.str.1143)
  br label %26

26:                                               ; preds = %21, %12
  call void @llvm.lifetime.end.p0(i64 8, ptr %5) #17
  ret void
}