; Function Attrs: null_pointer_is_valid sspstrong uwtable
define internal void @ieee802154_da_prompt(ptr noundef %0, ptr noundef %1) #0 {
  %3 = tail call ptr @wmem_file_scope()
  %4 = load i32, ptr @proto_ieee802154, align 4
  %5 = tail call ptr @p_get_proto_data(ptr noundef %3, ptr noundef %0, i32 noundef %4, i32 noundef 0)
  %.not = icmp eq ptr %5, null
  br i1 %.not, label %10, label %6

6:                                                ; preds = %2
  %7 = load i16, ptr %5, align 8
  %8 = zext i16 %7 to i32
  %9 = tail call i32 (ptr, i64, i32, i64, ptr, ...) @__snprintf_chk(ptr noundef %1, i64 noundef 200, i32 noundef 2, i64 noundef -1, ptr noundef nonnull @.str.1142, i32 noundef %8)
  br label %12

10:                                               ; preds = %2
  %11 = tail call i32 (ptr, i64, i32, i64, ptr, ...) @__snprintf_chk(ptr noundef %1, i64 noundef 200, i32 noundef 2, i64 noundef -1, ptr noundef nonnull @.str.1143)
  br label %12

12:                                               ; preds = %10, %6
  ret void
}